target datalayout = "e-m:e-p270:32:32-p271:32:32-p272:64:64-i64:64-i128:128-f80:128-n8:16:32:64-S128"
target triple = "x86_64-pc-linux-gnu"

%struct.pmix_list_t = type { %struct.pmix_object_t, %struct.pmix_list_item_t, i64 }
%struct.pmix_object_t = type { %union.pthread_mutex_t, ptr, i32, %struct.pmix_tma }
%union.pthread_mutex_t = type { %struct.__pthread_mutex_s }
%struct.__pthread_mutex_s = type { i32, i32, i32, i32, i32, i16, i16, %struct.__pthread_internal_list }
%struct.__pthread_internal_list = type { ptr, ptr }
%struct.pmix_tma = type { ptr, ptr, ptr, ptr, ptr, ptr, ptr, ptr }
%struct.pmix_list_item_t = type { %struct.pmix_object_t, ptr, ptr, i32 }
%struct.pmix_cli_result_t = type { %struct.pmix_object_t, %struct.pmix_list_t, ptr }
%struct.pmix_cli_item_t = type { %struct.pmix_list_item_t, ptr, ptr }

@.str = private unnamed_addr constant [5 x i8] c"prte\00", align 1
@prte_tool_actual = external global ptr, align 8
@prteshorts = internal global ptr @.str.54, align 8
@.str.1 = private unnamed_addr constant [14 x i8] c"help-prte.txt\00", align 1
@.str.2 = private unnamed_addr constant [8 x i8] c"prterun\00", align 1
@prterunshorts = internal global ptr @.str.117, align 8
@.str.3 = private unnamed_addr constant [17 x i8] c"help-prterun.txt\00", align 1
@.str.4 = private unnamed_addr constant [6 x i8] c"prted\00", align 1
@prtedshorts = internal global ptr @.str.125, align 8
@.str.5 = private unnamed_addr constant [15 x i8] c"help-prted.txt\00", align 1
@.str.6 = private unnamed_addr constant [5 x i8] c"prun\00", align 1
@prunshorts = internal global ptr @.str.117, align 8
@.str.7 = private unnamed_addr constant [14 x i8] c"help-prun.txt\00", align 1
@.str.8 = private unnamed_addr constant [6 x i8] c"pterm\00", align 1
@ptermshorts = internal global ptr @.str.142, align 8
@.str.9 = private unnamed_addr constant [15 x i8] c"help-pterm.txt\00", align 1
@.str.10 = private unnamed_addr constant [10 x i8] c"prte_info\00", align 1
@pinfoshorts = internal global ptr @.str.150, align 8
@.str.11 = private unnamed_addr constant [19 x i8] c"help-prte-info.txt\00", align 1
@.str.12 = private unnamed_addr constant [50 x i8] c"Report bugs to: https://github.com/openpmix/prrte\00", align 1
@pmix_tool_msg = external global ptr, align 8
@.str.13 = private unnamed_addr constant [6 x i8] c"PRRTE\00", align 1
@pmix_tool_org = external global ptr, align 8
@.str.14 = private unnamed_addr constant [4 x i8] c"all\00", align 1
@.str.15 = private unnamed_addr constant [8 x i8] c"ompi-a1\00", align 1
@pmix_tool_version = external global ptr, align 8
@.str.16 = private unnamed_addr constant [8 x i8] c"prtemca\00", align 1
@.str.17 = private unnamed_addr constant [10 x i8] c"PRTE_MCA_\00", align 1
@.str.18 = private unnamed_addr constant [8 x i8] c"pmixmca\00", align 1
@.str.19 = private unnamed_addr constant [10 x i8] c"PMIX_MCA_\00", align 1

; Function Attrs: nounwind uwtable
define internal i32 @parse_cli(ptr noundef %0, ptr noundef %1, i1 noundef zeroext %2) #0 {
  %4 = alloca i32, align 4
  %5 = alloca ptr, align 8
  %6 = alloca ptr, align 8
  %7 = alloca i8, align 1
  %8 = alloca ptr, align 8
  %9 = alloca ptr, align 8
  %10 = alloca ptr, align 8
  %11 = alloca i32, align 4
  %12 = alloca i32, align 4
  %13 = alloca ptr, align 8
  %14 = alloca i32, align 4
  store ptr %0, ptr %5, align 8, !tbaa !3
  store ptr %1, ptr %6, align 8, !tbaa !8
  %15 = zext i1 %2 to i8
  store i8 %15, ptr %7, align 1, !tbaa !9
  call void @llvm.lifetime.start.p0(i64 8, ptr %8) #9
  call void @llvm.lifetime.start.p0(i64 8, ptr %9) #9
  call void @llvm.lifetime.start.p0(i64 8, ptr %10) #9
  call void @llvm.lifetime.start.p0(i64 4, ptr %11) #9
  call void @llvm.lifetime.start.p0(i64 4, ptr %12) #9
  call void @llvm.lifetime.start.p0(i64 8, ptr %13) #9
  %16 = load ptr, ptr @prte_tool_actual, align 8, !tbaa !11
  %17 = call i32 @strcmp(ptr noundef %16, ptr noundef @.str) #10
  %18 = icmp eq i32 0, %17
  br i1 %18, label %19, label %21

19:                                               ; preds = %3
  store ptr @prteoptions, ptr %10, align 8, !tbaa !13
  %20 = load ptr, ptr @prteshorts, align 8, !tbaa !11
  store ptr %20, ptr %8, align 8, !tbaa !11
  store ptr @.str.1, ptr %9, align 8, !tbaa !11
  br label %56

21:                                               ; preds = %3
  %22 = load ptr, ptr @prte_tool_actual, align 8, !tbaa !11
  %23 = call i32 @strcmp(ptr noundef %22, ptr noundef @.str.2) #10
  %24 = icmp eq i32 0, %23
  br i1 %24, label %25, label %27

25:                                               ; preds = %21
  store ptr @prterunoptions, ptr %10, align 8, !tbaa !13
  %26 = load ptr, ptr @prterunshorts, align 8, !tbaa !11
  store ptr %26, ptr %8, align 8, !tbaa !11
  store ptr @.str.3, ptr %9, align 8, !tbaa !11
  br label %55

27:                                               ; preds = %21
  %28 = load ptr, ptr @prte_tool_actual, align 8, !tbaa !11
  %29 = call i32 @strcmp(ptr noundef %28, ptr noundef @.str.4) #10
  %30 = icmp eq i32 0, %29
  br i1 %30, label %31, label %33

31:                                               ; preds = %27
  store ptr @prtedoptions, ptr %10, align 8, !tbaa !13
  %32 = load ptr, ptr @prtedshorts, align 8, !tbaa !11
  store ptr %32, ptr %8, align 8, !tbaa !11
  store ptr @.str.5, ptr %9, align 8, !tbaa !11
  br label %54

33:                                               ; preds = %27
  %34 = load ptr, ptr @prte_tool_actual, align 8, !tbaa !11
  %35 = call i32 @strcmp(ptr noundef %34, ptr noundef @.str.6) #10
  %36 = icmp eq i32 0, %35
  br i1 %36, label %37, label %39

37:                                               ; preds = %33
  store ptr @prunoptions, ptr %10, align 8, !tbaa !13
  %38 = load ptr, ptr @prunshorts, align 8, !tbaa !11
  store ptr %38, ptr %8, align 8, !tbaa !11
  store ptr @.str.7, ptr %9, align 8, !tbaa !11
  br label %53

39:                                               ; preds = %33
  %40 = load ptr, ptr @prte_tool_actual, align 8, !tbaa !11
  %41 = call i32 @strcmp(ptr noundef %40, ptr noundef @.str.8) #10
  %42 = icmp eq i32 0, %41
  br i1 %42, label %43, label %45

43:                                               ; preds = %39
  store ptr @ptermoptions, ptr %10, align 8, !tbaa !13
  %44 = load ptr, ptr @ptermshorts, align 8, !tbaa !11
  store ptr %44, ptr %8, align 8, !tbaa !11
  store ptr @.str.9, ptr %9, align 8, !tbaa !11
  br label %52

45:                                               ; preds = %39
  %46 = load ptr, ptr @prte_tool_actual, align 8, !tbaa !11
  %47 = call i32 @strcmp(ptr noundef %46, ptr noundef @.str.10) #10
  %48 = icmp eq i32 0, %47
  br i1 %48, label %49, label %51

49:                                               ; preds = %45
  store ptr @pinfooptions, ptr %10, align 8, !tbaa !13
  %50 = load ptr, ptr @pinfoshorts, align 8, !tbaa !11
  store ptr %50, ptr %8, align 8, !tbaa !11
  store ptr @.str.11, ptr %9, align 8, !tbaa !11
  br label %51

51:                                               ; preds = %49, %45
  br label %52

52:                                               ; preds = %51, %43
  br label %53

53:                                               ; preds = %52, %37
  br label %54

54:                                               ; preds = %53, %31
  br label %55

55:                                               ; preds = %54, %25
  br label %56

56:                                               ; preds = %55, %19
  store ptr @.str.12, ptr @pmix_tool_msg, align 8, !tbaa !11
  store ptr @.str.13, ptr @pmix_tool_org, align 8, !tbaa !11
  %57 = call ptr @prte_util_make_version_string(ptr noundef @.str.14, i32 noundef 4, i32 noundef 0, i32 noundef 0, ptr noundef @.str.15, ptr noundef null)
  store ptr %57, ptr @pmix_tool_version, align 8, !tbaa !11
  %58 = load ptr, ptr %5, align 8, !tbaa !3
  %59 = load ptr, ptr %8, align 8, !tbaa !11
  %60 = load ptr, ptr %10, align 8, !tbaa !13
  %61 = load ptr, ptr %6, align 8, !tbaa !8
  %62 = load ptr, ptr %9, align 8, !tbaa !11
  %63 = call i32 @pmix_cmd_line_parse(ptr noundef %58, ptr noundef %59, ptr noundef %60, ptr noundef null, ptr noundef %61, ptr noundef %62)
  store i32 %63, ptr %11, align 4, !tbaa !15
  %64 = load i32, ptr %11, align 4, !tbaa !15
  %65 = icmp ne i32 0, %64
  br i1 %65, label %66, label %74

66:                                               ; preds = %56
  %67 = load i32, ptr %11, align 4, !tbaa !15
  %68 = icmp eq i32 -157, %67
  br i1 %68, label %69, label %70

69:                                               ; preds = %66
  store i32 -72, ptr %4, align 4
  store i32 1, ptr %14, align 4
  br label %158

70:                                               ; preds = %66
  %71 = load i32, ptr %11, align 4, !tbaa !15
  %72 = call i32 @prte_pmix_convert_status(i32 noundef %71)
  store i32 %72, ptr %11, align 4, !tbaa !15
  %73 = load i32, ptr %11, align 4, !tbaa !15
  store i32 %73, ptr %4, align 4
  store i32 1, ptr %14, align 4
  br label %158

74:                                               ; preds = %56
  %75 = load ptr, ptr %6, align 8, !tbaa !8
  %76 = load i8, ptr %7, align 1, !tbaa !9, !range !17, !noundef !18
  %77 = trunc i8 %76 to i1
  %78 = call i32 @convert_deprecated_cli(ptr noundef %75, i1 noundef zeroext %77)
  store i32 %78, ptr %11, align 4, !tbaa !15
  %79 = load i32, ptr %11, align 4, !tbaa !15
  %80 = icmp ne i32 0, %79
  br i1 %80, label %81, label %83

81:                                               ; preds = %74
  %82 = load i32, ptr %11, align 4, !tbaa !15
  store i32 %82, ptr %4, align 4
  store i32 1, ptr %14, align 4
  br label %158

83:                                               ; preds = %74
  %84 = load ptr, ptr %6, align 8, !tbaa !8
  %85 = getelementptr inbounds nuw %struct.pmix_cli_result_t, ptr %84, i32 0, i32 1
  %86 = getelementptr inbounds nuw %struct.pmix_list_t, ptr %85, i32 0, i32 1
  %87 = getelementptr inbounds nuw %struct.pmix_list_item_t, ptr %86, i32 0, i32 1
  %88 = load ptr, ptr %87, align 8, !tbaa !19
  store ptr %88, ptr %13, align 8, !tbaa !8
  br label %89

89:                                               ; preds = %153, %83
  %90 = load ptr, ptr %13, align 8, !tbaa !8
  %91 = load ptr, ptr %6, align 8, !tbaa !8
  %92 = getelementptr inbounds nuw %struct.pmix_cli_result_t, ptr %91, i32 0, i32 1
  %93 = getelementptr inbounds nuw %struct.pmix_list_t, ptr %92, i32 0, i32 1
  %94 = icmp ne ptr %90, %93
  br i1 %94, label %95, label %157

95:                                               ; preds = %89
  %96 = load ptr, ptr %13, align 8, !tbaa !8
  %97 = getelementptr inbounds nuw %struct.pmix_cli_item_t, ptr %96, i32 0, i32 1
  %98 = load ptr, ptr %97, align 8, !tbaa !28
  %99 = call i32 @strcmp(ptr noundef %98, ptr noundef @.str.16) #10
  %100 = icmp eq i32 0, %99
  br i1 %100, label %101, label %123

101:                                              ; preds = %95
  store i32 0, ptr %12, align 4, !tbaa !15
  br label %102

102:                                              ; preds = %119, %101
  %103 = load ptr, ptr %13, align 8, !tbaa !8
  %104 = getelementptr inbounds nuw %struct.pmix_cli_item_t, ptr %103, i32 0, i32 2
  %105 = load ptr, ptr %104, align 8, !tbaa !30
  %106 = load i32, ptr %12, align 4, !tbaa !15
  %107 = sext i32 %106 to i64
  %108 = getelementptr inbounds ptr, ptr %105, i64 %107
  %109 = load ptr, ptr %108, align 8, !tbaa !11
  %110 = icmp ne ptr null, %109
  br i1 %110, label %111, label %122

111:                                              ; preds = %102
  %112 = load ptr, ptr %13, align 8, !tbaa !8
  %113 = getelementptr inbounds nuw %struct.pmix_cli_item_t, ptr %112, i32 0, i32 2
  %114 = load ptr, ptr %113, align 8, !tbaa !30
  %115 = load i32, ptr %12, align 4, !tbaa !15
  %116 = sext i32 %115 to i64
  %117 = getelementptr inbounds ptr, ptr %114, i64 %116
  %118 = load ptr, ptr %117, align 8, !tbaa !11
  call void @prte_schizo_base_expose(ptr noundef %118, ptr noundef @.str.17)
  br label %119

119:                                              ; preds = %111
  %120 = load i32, ptr %12, align 4, !tbaa !15
  %121 = add nsw i32 %120, 1
  store i32 %121, ptr %12, align 4, !tbaa !15
  br label %102, !llvm.loop !31

122:                                              ; preds = %102
  br label %152

123:                                              ; preds = %95
  %124 = load ptr, ptr %13, align 8, !tbaa !8
  %125 = getelementptr inbounds nuw %struct.pmix_cli_item_t, ptr %124, i32 0, i32 1
  %126 = load ptr, ptr %125, align 8, !tbaa !28
  %127 = call i32 @strcmp(ptr noundef %126, ptr noundef @.str.18) #10
  %128 = icmp eq i32 0, %127
  br i1 %128, label %129, label %151

129:                                              ; preds = %123
  store i32 0, ptr %12, align 4, !tbaa !15
  br label %130

130:                                              ; preds = %147, %129
  %131 = load ptr, ptr %13, align 8, !tbaa !8
  %132 = getelementptr inbounds nuw %struct.pmix_cli_item_t, ptr %131, i32 0, i32 2
  %133 = load ptr, ptr %132, align 8, !tbaa !30
  %134 = load i32, ptr %12, align 4, !tbaa !15
  %135 = sext i32 %134 to i64
  %136 = getelementptr inbounds ptr, ptr %133, i64 %135
  %137 = load ptr, ptr %136, align 8, !tbaa !11
  %138 = icmp ne ptr null, %137
  br i1 %138, label %139, label %150

139:                                              ; preds = %130
  %140 = load ptr, ptr %13, align 8, !tbaa !8
  %141 = getelementptr inbounds nuw %struct.pmix_cli_item_t, ptr %140, i32 0, i32 2
  %142 = load ptr, ptr %141, align 8, !tbaa !30
  %143 = load i32, ptr %12, align 4, !tbaa !15
  %144 = sext i32 %143 to i64
  %145 = getelementptr inbounds ptr, ptr %142, i64 %144
  %146 = load ptr, ptr %145, align 8, !tbaa !11
  call void @prte_schizo_base_expose(ptr noundef %146, ptr noundef @.str.19)
  br label %147

147:                                              ; preds = %139
  %148 = load i32, ptr %12, align 4, !tbaa !15
  %149 = add nsw i32 %148, 1
  store i32 %149, ptr %12, align 4, !tbaa !15
  br label %130, !llvm.loop !33

150:                                              ; preds = %130
  br label %151

151:                                              ; preds = %150, %123
  br label %152

152:                                              ; preds = %151, %122
  br label %153

153:                                              ; preds = %152
  %154 = load ptr, ptr %13, align 8, !tbaa !8
  %155 = getelementptr inbounds nuw %struct.pmix_list_item_t, ptr %154, i32 0, i32 1
  %156 = load ptr, ptr %155, align 8, !tbaa !34
  store ptr %156, ptr %13, align 8, !tbaa !8
  br label %89, !llvm.loop !35

157:                                              ; preds = %89
  store i32 0, ptr %4, align 4
  store i32 1, ptr %14, align 4
  br label %158

158:                                              ; preds = %157, %81, %70, %69
  call void @llvm.lifetime.end.p0(i64 8, ptr %13) #9
  call void @llvm.lifetime.end.p0(i64 4, ptr %12) #9
  call void @llvm.lifetime.end.p0(i64 4, ptr %11) #9
  call void @llvm.lifetime.end.p0(i64 8, ptr %10) #9
  call void @llvm.lifetime.end.p0(i64 8, ptr %9) #9
  call void @llvm.lifetime.end.p0(i64 8, ptr %8) #9
  %159 = load i32, ptr %4, align 4
  ret i32 %159
}