; Function Attrs: nounwind uwtable
define internal i32 @parse_cli(ptr noundef %0, ptr noundef %1, i1 noundef zeroext %2) #0 {
  %4 = load ptr, ptr @prte_tool_actual, align 8, !tbaa !3
  %5 = tail call i32 @strcmp(ptr noundef nonnull dereferenceable(1) %4, ptr noundef nonnull dereferenceable(5) @.str) #13
  %6 = icmp eq i32 %5, 0
  br i1 %6, label %20, label %7

7:                                                ; preds = %3
  %8 = tail call i32 @strcmp(ptr noundef nonnull dereferenceable(1) %4, ptr noundef nonnull dereferenceable(8) @.str.2) #13
  %9 = icmp eq i32 %8, 0
  br i1 %9, label %20, label %10

10:                                               ; preds = %7
  %11 = tail call i32 @strcmp(ptr noundef nonnull dereferenceable(1) %4, ptr noundef nonnull dereferenceable(6) @.str.4) #13
  %12 = icmp eq i32 %11, 0
  br i1 %12, label %20, label %13

13:                                               ; preds = %10
  %14 = tail call i32 @strcmp(ptr noundef nonnull dereferenceable(1) %4, ptr noundef nonnull dereferenceable(5) @.str.6) #13
  %15 = icmp eq i32 %14, 0
  br i1 %15, label %20, label %16

16:                                               ; preds = %13
  %17 = tail call i32 @strcmp(ptr noundef nonnull dereferenceable(1) %4, ptr noundef nonnull dereferenceable(6) @.str.8) #13
  %18 = icmp eq i32 %17, 0
  br i1 %18, label %20, label %19

19:                                               ; preds = %16
  br label %20

20:                                               ; preds = %19, %16, %13, %10, %7, %3
  %.032 = phi ptr [ @.str.54, %3 ], [ @.str.117, %7 ], [ @.str.125, %10 ], [ @.str.117, %13 ], [ @.str.142, %16 ], [ @.str.150, %19 ]
  %.031 = phi ptr [ @.str.1, %3 ], [ @.str.3, %7 ], [ @.str.5, %10 ], [ @.str.7, %13 ], [ @.str.9, %16 ], [ @.str.11, %19 ]
  %.030 = phi ptr [ @prteoptions, %3 ], [ @prterunoptions, %7 ], [ @prtedoptions, %10 ], [ @prunoptions, %13 ], [ @ptermoptions, %16 ], [ @pinfooptions, %19 ]
  store ptr @.str.12, ptr @pmix_tool_msg, align 8, !tbaa !3
  store ptr @.str.13, ptr @pmix_tool_org, align 8, !tbaa !3
  %21 = tail call ptr @prte_util_make_version_string(ptr noundef nonnull @.str.14, i32 noundef 4, i32 noundef 0, i32 noundef 0, ptr noundef nonnull @.str.15, ptr noundef null) #14
  store ptr %21, ptr @pmix_tool_version, align 8, !tbaa !3
  %22 = tail call i32 @pmix_cmd_line_parse(ptr noundef %0, ptr noundef nonnull %.032, ptr noundef nonnull %.030, ptr noundef null, ptr noundef %1, ptr noundef nonnull %.031) #14
  switch i32 %22, label %23 [
    i32 0, label %25
    i32 -157, label %.loopexit44
  ]

23:                                               ; preds = %20
  %24 = tail call i32 @prte_pmix_convert_status(i32 noundef %22) #14
  br label %.loopexit44

25:                                               ; preds = %20
  %26 = tail call fastcc i32 @convert_deprecated_cli(ptr noundef %1, i1 noundef zeroext %2)
  %.not38 = icmp eq i32 %26, 0
  br i1 %.not38, label %27, label %.loopexit44

27:                                               ; preds = %25
  %28 = getelementptr inbounds nuw i8, ptr %1, i64 240
  %29 = getelementptr inbounds nuw i8, ptr %1, i64 360
  %.050 = load ptr, ptr %29, align 8, !tbaa !8
  %.not3951 = icmp eq ptr %.050, %28
  br i1 %.not3951, label %.loopexit44, label %.lr.ph53

.lr.ph53:                                         ; preds = %27, %.loopexit
  %.052 = phi ptr [ %.0, %.loopexit ], [ %.050, %27 ]
  %30 = getelementptr inbounds nuw i8, ptr %.052, i64 144
  %31 = load ptr, ptr %30, align 8, !tbaa !15
  %32 = tail call i32 @strcmp(ptr noundef nonnull dereferenceable(1) %31, ptr noundef nonnull dereferenceable(8) @.str.16) #13
  %33 = icmp eq i32 %32, 0
  br i1 %33, label %.preheader, label %41

.preheader:                                       ; preds = %.lr.ph53
  %34 = getelementptr inbounds nuw i8, ptr %.052, i64 152
  %35 = load ptr, ptr %34, align 8, !tbaa !18
  %36 = load ptr, ptr %35, align 8, !tbaa !3
  %.not4147 = icmp eq ptr %36, null
  br i1 %.not4147, label %.loopexit, label %.lr.ph49

.lr.ph49:                                         ; preds = %.preheader, %.lr.ph49
  %indvars.iv56 = phi i64 [ %indvars.iv.next57, %.lr.ph49 ], [ 0, %.preheader ]
  %37 = phi ptr [ %40, %.lr.ph49 ], [ %36, %.preheader ]
  tail call void @prte_schizo_base_expose(ptr noundef nonnull %37, ptr noundef nonnull @.str.17) #14
  %indvars.iv.next57 = add nuw nsw i64 %indvars.iv56, 1
  %38 = load ptr, ptr %34, align 8, !tbaa !18
  %39 = getelementptr inbounds nuw ptr, ptr %38, i64 %indvars.iv.next57
  %40 = load ptr, ptr %39, align 8, !tbaa !3
  %.not41 = icmp eq ptr %40, null
  br i1 %.not41, label %.loopexit, label %.lr.ph49, !llvm.loop !19

41:                                               ; preds = %.lr.ph53
  %42 = tail call i32 @strcmp(ptr noundef nonnull dereferenceable(1) %31, ptr noundef nonnull dereferenceable(8) @.str.18) #13
  %43 = icmp eq i32 %42, 0
  br i1 %43, label %.preheader42, label %.loopexit

.preheader42:                                     ; preds = %41
  %44 = getelementptr inbounds nuw i8, ptr %.052, i64 152
  %45 = load ptr, ptr %44, align 8, !tbaa !18
  %46 = load ptr, ptr %45, align 8, !tbaa !3
  %.not4045 = icmp eq ptr %46, null
  br i1 %.not4045, label %.loopexit, label %.lr.ph

.lr.ph:                                           ; preds = %.preheader42, %.lr.ph
  %indvars.iv = phi i64 [ %indvars.iv.next, %.lr.ph ], [ 0, %.preheader42 ]
  %47 = phi ptr [ %50, %.lr.ph ], [ %46, %.preheader42 ]
  tail call void @prte_schizo_base_expose(ptr noundef nonnull %47, ptr noundef nonnull @.str.19) #14
  %indvars.iv.next = add nuw nsw i64 %indvars.iv, 1
  %48 = load ptr, ptr %44, align 8, !tbaa !18
  %49 = getelementptr inbounds nuw ptr, ptr %48, i64 %indvars.iv.next
  %50 = load ptr, ptr %49, align 8, !tbaa !3
  %.not40 = icmp eq ptr %50, null
  br i1 %.not40, label %.loopexit, label %.lr.ph, !llvm.loop !21

.loopexit:                                        ; preds = %.lr.ph, %.lr.ph49, %.preheader42, %.preheader, %41
  %51 = getelementptr inbounds nuw i8, ptr %.052, i64 120
  %.0 = load ptr, ptr %51, align 8, !tbaa !8
  %.not39 = icmp eq ptr %.0, %28
  br i1 %.not39, label %.loopexit44, label %.lr.ph53, !llvm.loop !22

.loopexit44:                                      ; preds = %.loopexit, %27, %25, %20, %23
  %.033 = phi i32 [ %24, %23 ], [ -72, %20 ], [ %26, %25 ], [ 0, %27 ], [ 0, %.loopexit ]
  ret i32 %.033
}